target datalayout = "e-m:e-p270:32:32-p271:32:32-p272:64:64-i64:64-i128:128-f80:128-n8:16:32:64-S128"
target triple = "x86_64-pc-linux-gnu"

%struct.AVFilterContext = type { ptr, ptr, ptr, ptr, ptr, i32, ptr, ptr, i32, ptr, ptr, i32, i32, ptr, ptr, ptr, ptr, i32, ptr, i32, i32 }
%struct.MedianContext = type { ptr, i32, i32, i32, float, [4 x i32], [4 x i32], i32, i32, i32, ptr, ptr, i32, i32, i32, i32, ptr, ptr, ptr, ptr }

; Function Attrs: nounwind uwtable
define internal i32 @process_command(ptr noundef %0, ptr noundef %1, ptr noundef %2, ptr noundef %3, i32 noundef %4, i32 noundef %5) #1 {
  %7 = alloca i32, align 4
  %8 = alloca ptr, align 8
  %9 = alloca ptr, align 8
  %10 = alloca ptr, align 8
  %11 = alloca ptr, align 8
  %12 = alloca i32, align 4
  %13 = alloca i32, align 4
  %14 = alloca ptr, align 8
  %15 = alloca i32, align 4
  %16 = alloca i32, align 4
  store ptr %0, ptr %8, align 8, !tbaa !4
  store ptr %1, ptr %9, align 8, !tbaa !33
  store ptr %2, ptr %10, align 8, !tbaa !33
  store ptr %3, ptr %11, align 8, !tbaa !33
  store i32 %4, ptr %12, align 4, !tbaa !24
  store i32 %5, ptr %13, align 4, !tbaa !24
  call void @llvm.lifetime.start.p0(i64 8, ptr %14) #8
  %17 = load ptr, ptr %8, align 8, !tbaa !4
  %18 = getelementptr inbounds nuw %struct.AVFilterContext, ptr %17, i32 0, i32 9
  %19 = load ptr, ptr %18, align 8, !tbaa !9
  store ptr %19, ptr %14, align 8, !tbaa !22
  call void @llvm.lifetime.start.p0(i64 4, ptr %15) #8
  %20 = load ptr, ptr %8, align 8, !tbaa !4
  %21 = load ptr, ptr %9, align 8, !tbaa !33
  %22 = load ptr, ptr %10, align 8, !tbaa !33
  %23 = load ptr, ptr %11, align 8, !tbaa !33
  %24 = load i32, ptr %12, align 4, !tbaa !24
  %25 = load i32, ptr %13, align 4, !tbaa !24
  %26 = call i32 @ff_filter_process_command(ptr noundef %20, ptr noundef %21, ptr noundef %22, ptr noundef %23, i32 noundef %24, i32 noundef %25)
  store i32 %26, ptr %15, align 4, !tbaa !24
  %27 = load i32, ptr %15, align 4, !tbaa !24
  %28 = icmp slt i32 %27, 0
  br i1 %28, label %29, label %31

29:                                               ; preds = %6
  %30 = load i32, ptr %15, align 4, !tbaa !24
  store i32 %30, ptr %7, align 4
  store i32 1, ptr %16, align 4
  br label %49

31:                                               ; preds = %6
  %32 = load ptr, ptr %14, align 8, !tbaa !22
  %33 = getelementptr inbounds nuw %struct.MedianContext, ptr %32, i32 0, i32 3
  %34 = load i32, ptr %33, align 8, !tbaa !34
  %35 = icmp ne i32 %34, 0
  br i1 %35, label %42, label %36

36:                                               ; preds = %31
  %37 = load ptr, ptr %14, align 8, !tbaa !22
  %38 = getelementptr inbounds nuw %struct.MedianContext, ptr %37, i32 0, i32 2
  %39 = load i32, ptr %38, align 4, !tbaa !35
  %40 = load ptr, ptr %14, align 8, !tbaa !22
  %41 = getelementptr inbounds nuw %struct.MedianContext, ptr %40, i32 0, i32 3
  store i32 %39, ptr %41, align 8, !tbaa !34
  br label %42

42:                                               ; preds = %36, %31
  %43 = load ptr, ptr %14, align 8, !tbaa !22
  %44 = load ptr, ptr %8, align 8, !tbaa !4
  %45 = getelementptr inbounds nuw %struct.AVFilterContext, ptr %44, i32 0, i32 4
  %46 = load ptr, ptr %45, align 8, !tbaa !36
  %47 = getelementptr inbounds ptr, ptr %46, i64 0
  %48 = load ptr, ptr %47, align 8, !tbaa !37
  call void @check_params(ptr noundef %43, ptr noundef %48)
  store i32 0, ptr %7, align 4
  store i32 1, ptr %16, align 4
  br label %49

49:                                               ; preds = %42, %29
  call void @llvm.lifetime.end.p0(i64 4, ptr %15) #8
  call void @llvm.lifetime.end.p0(i64 8, ptr %14) #8
  %50 = load i32, ptr %7, align 4
  ret i32 %50
}