; Function Attrs: nounwind uwtable
define internal range(i32 -2147483648, 1) i32 @process_command(ptr noundef %0, ptr noundef %1, ptr noundef %2, ptr noundef %3, i32 noundef %4, i32 noundef %5) #1 {
  %7 = getelementptr inbounds nuw i8, ptr %0, i64 72
  %8 = load ptr, ptr %7, align 8, !tbaa !4
  %9 = tail call i32 @ff_filter_process_command(ptr noundef %0, ptr noundef %1, ptr noundef %2, ptr noundef %3, i32 noundef %4, i32 noundef %5) #9
  %10 = icmp slt i32 %9, 0
  br i1 %10, label %21, label %11

11:                                               ; preds = %6
  %12 = getelementptr inbounds nuw i8, ptr %8, i64 16
  %13 = load i32, ptr %12, align 8, !tbaa !28
  %.not = icmp eq i32 %13, 0
  br i1 %.not, label %14, label %17

14:                                               ; preds = %11
  %15 = getelementptr inbounds nuw i8, ptr %8, i64 12
  %16 = load i32, ptr %15, align 4, !tbaa !29
  store i32 %16, ptr %12, align 8, !tbaa !28
  br label %17

17:                                               ; preds = %14, %11
  %18 = getelementptr inbounds nuw i8, ptr %0, i64 32
  %19 = load ptr, ptr %18, align 8, !tbaa !30
  %20 = load ptr, ptr %19, align 8, !tbaa !31
  tail call fastcc void @check_params(ptr noundef nonnull %8, ptr noundef %20)
  br label %21

21:                                               ; preds = %6, %17
  %.0 = phi i32 [ 0, %17 ], [ %9, %6 ]
  ret i32 %.0
}